target datalayout = "e-m:e-p270:32:32-p271:32:32-p272:64:64-i64:64-i128:128-f80:128-n8:16:32:64-S128"
target triple = "x86_64-pc-linux-gnu"

%struct.H5O_shared_t = type { i32, ptr, i32, %union.anon }
%union.anon = type { %struct.H5O_mesg_loc_t }
%struct.H5O_mesg_loc_t = type { i32, i64 }
%struct.H5T_t = type { %struct.H5O_shared_t, ptr, %struct.H5O_loc_t, %struct.H5G_name_t, ptr }
%struct.H5O_loc_t = type { ptr, i64, i8 }
%struct.H5G_name_t = type { ptr, ptr, i32 }
%struct.H5T_shared_t = type { i64, i32, i32, i64, i32, i8, ptr, ptr, %union.anon.0 }
%union.anon.0 = type { %struct.H5T_array_t }
%struct.H5T_array_t = type { i64, i32, [32 x i64] }

@H5E_OHDR_g = external global i64, align 8
@.str.4 = private unnamed_addr constant [102 x i8] c"generated/home/dtcxzyw/WorkSpace/Projects/compilers/llvm-opt-benchmark/bench/hdf5/hdf5/src/H5Odtype.c\00", align 1
@H5E_DATATYPE_g = external global i64, align 8
@H5E_CANTCOPY_g = external global i64, align 8
@H5E_CANTINIT_g = external global i64, align 8
@.str.78 = private unnamed_addr constant [25 x i8] c"unable to reset location\00", align 1
@__func__.H5O__dtype_set_share = private unnamed_addr constant [21 x i8] c"H5O__dtype_set_share\00", align 1
@.str.175 = private unnamed_addr constant [35 x i8] c"unable to copy shared message info\00", align 1

; Function Attrs: nounwind uwtable
define internal i32 @H5O__dtype_set_share(ptr noundef %0, ptr noundef %1) #0 {
  %3 = alloca ptr, align 8
  %4 = alloca ptr, align 8
  %5 = alloca ptr, align 8
  %6 = alloca i32, align 4
  %7 = alloca i8, align 1
  store ptr %0, ptr %3, align 8
  store ptr %1, ptr %4, align 8
  %8 = load ptr, ptr %3, align 8
  store ptr %8, ptr %5, align 8
  store i32 0, ptr %6, align 4
  store i8 0, ptr %7, align 1
  %9 = load ptr, ptr %5, align 8
  %10 = getelementptr inbounds %struct.H5T_t, ptr %9, i32 0, i32 0
  %11 = load ptr, ptr %4, align 8
  %12 = call i32 @H5O_set_shared(ptr noundef %10, ptr noundef %11)
  %13 = icmp slt i32 %12, 0
  br i1 %13, label %14, label %29

14:                                               ; preds = %2
  br label %15

15:                                               ; preds = %14
  br label %16

16:                                               ; preds = %15
  br label %17

17:                                               ; preds = %16
  %18 = load i64, ptr @H5E_OHDR_g, align 8
  %19 = load i64, ptr @H5E_CANTCOPY_g, align 8
  %20 = call i32 (ptr, ptr, i32, i64, i64, ptr, ...) @H5E_printf_stack(ptr noundef @.str.4, ptr noundef @__func__.H5O__dtype_set_share, i32 noundef 1740, i64 noundef %18, i64 noundef %19, ptr noundef @.str.175)
  br label %21

21:                                               ; preds = %17
  store i8 1, ptr %7, align 1
  %22 = load i8, ptr %7, align 1
  %23 = trunc i8 %22 to i1
  %24 = zext i1 %23 to i8
  store i8 %24, ptr %7, align 1
  br label %25

25:                                               ; preds = %21
  br label %26

26:                                               ; preds = %25
  store i32 -1, ptr %6, align 4
  br label %73

27:                                               ; No predecessors!
  br label %28

28:                                               ; preds = %27
  br label %29

29:                                               ; preds = %28, %2
  %30 = load ptr, ptr %4, align 8
  %31 = getelementptr inbounds %struct.H5O_shared_t, ptr %30, i32 0, i32 0
  %32 = load i32, ptr %31, align 8
  %33 = icmp eq i32 %32, 2
  br i1 %33, label %34, label %72

34:                                               ; preds = %29
  %35 = load ptr, ptr %5, align 8
  %36 = getelementptr inbounds %struct.H5T_t, ptr %35, i32 0, i32 1
  %37 = load ptr, ptr %36, align 8
  %38 = getelementptr inbounds %struct.H5T_shared_t, ptr %37, i32 0, i32 1
  store i32 3, ptr %38, align 8
  %39 = load ptr, ptr %5, align 8
  %40 = getelementptr inbounds %struct.H5T_t, ptr %39, i32 0, i32 2
  %41 = call i32 @H5O_loc_reset(ptr noundef %40)
  %42 = icmp slt i32 %41, 0
  br i1 %42, label %43, label %58

43:                                               ; preds = %34
  br label %44

44:                                               ; preds = %43
  br label %45

45:                                               ; preds = %44
  br label %46

46:                                               ; preds = %45
  %47 = load i64, ptr @H5E_DATATYPE_g, align 8
  %48 = load i64, ptr @H5E_CANTINIT_g, align 8
  %49 = call i32 (ptr, ptr, i32, i64, i64, ptr, ...) @H5E_printf_stack(ptr noundef @.str.4, ptr noundef @__func__.H5O__dtype_set_share, i32 noundef 1748, i64 noundef %47, i64 noundef %48, ptr noundef @.str.78)
  br label %50

50:                                               ; preds = %46
  store i8 1, ptr %7, align 1
  %51 = load i8, ptr %7, align 1
  %52 = trunc i8 %51 to i1
  %53 = zext i1 %52 to i8
  store i8 %53, ptr %7, align 1
  br label %54

54:                                               ; preds = %50
  br label %55

55:                                               ; preds = %54
  store i32 -1, ptr %6, align 4
  br label %73

56:                                               ; No predecessors!
  br label %57

57:                                               ; preds = %56
  br label %58

58:                                               ; preds = %57, %34
  %59 = load ptr, ptr %4, align 8
  %60 = getelementptr inbounds %struct.H5O_shared_t, ptr %59, i32 0, i32 1
  %61 = load ptr, ptr %60, align 8
  %62 = load ptr, ptr %5, align 8
  %63 = getelementptr inbounds %struct.H5T_t, ptr %62, i32 0, i32 2
  %64 = getelementptr inbounds %struct.H5O_loc_t, ptr %63, i32 0, i32 0
  store ptr %61, ptr %64, align 8
  %65 = load ptr, ptr %4, align 8
  %66 = getelementptr inbounds %struct.H5O_shared_t, ptr %65, i32 0, i32 3
  %67 = getelementptr inbounds %struct.H5O_mesg_loc_t, ptr %66, i32 0, i32 1
  %68 = load i64, ptr %67, align 8
  %69 = load ptr, ptr %5, align 8
  %70 = getelementptr inbounds %struct.H5T_t, ptr %69, i32 0, i32 2
  %71 = getelementptr inbounds %struct.H5O_loc_t, ptr %70, i32 0, i32 1
  store i64 %68, ptr %71, align 8
  br label %72

72:                                               ; preds = %58, %29
  br label %73

73:                                               ; preds = %72, %55, %26
  %74 = load i32, ptr %6, align 4
  ret i32 %74
}