; Function Attrs: nounwind uwtable
define internal range(i32 -1, 1) i32 @H5O__dtype_set_share(ptr noundef %0, ptr noundef %1) #0 {
  %3 = tail call i32 @H5O_set_shared(ptr noundef %0, ptr noundef %1) #15
  %4 = icmp slt i32 %3, 0
  br i1 %4, label %5, label %9

5:                                                ; preds = %2
  %6 = load i64, ptr @H5E_OHDR_g, align 8
  %7 = load i64, ptr @H5E_CANTCOPY_g, align 8
  %8 = tail call i32 (ptr, ptr, i32, i64, i64, ptr, ...) @H5E_printf_stack(ptr noundef nonnull @.str.4, ptr noundef nonnull @__func__.H5O__dtype_set_share, i32 noundef 1740, i64 noundef %6, i64 noundef %7, ptr noundef nonnull @.str.175) #15
  br label %29

9:                                                ; preds = %2
  %10 = load i32, ptr %1, align 8
  %11 = icmp eq i32 %10, 2
  br i1 %11, label %12, label %29

12:                                               ; preds = %9
  %13 = getelementptr inbounds i8, ptr %0, i64 40
  %14 = load ptr, ptr %13, align 8
  %15 = getelementptr inbounds i8, ptr %14, i64 8
  store i32 3, ptr %15, align 8
  %16 = getelementptr inbounds i8, ptr %0, i64 48
  %17 = tail call i32 @H5O_loc_reset(ptr noundef nonnull %16) #15
  %18 = icmp slt i32 %17, 0
  br i1 %18, label %19, label %23

19:                                               ; preds = %12
  %20 = load i64, ptr @H5E_DATATYPE_g, align 8
  %21 = load i64, ptr @H5E_CANTINIT_g, align 8
  %22 = tail call i32 (ptr, ptr, i32, i64, i64, ptr, ...) @H5E_printf_stack(ptr noundef nonnull @.str.4, ptr noundef nonnull @__func__.H5O__dtype_set_share, i32 noundef 1748, i64 noundef %20, i64 noundef %21, ptr noundef nonnull @.str.78) #15
  br label %29

23:                                               ; preds = %12
  %24 = getelementptr inbounds i8, ptr %1, i64 8
  %25 = load ptr, ptr %24, align 8
  store ptr %25, ptr %16, align 8
  %26 = getelementptr inbounds i8, ptr %1, i64 32
  %27 = load i64, ptr %26, align 8
  %28 = getelementptr inbounds i8, ptr %0, i64 56
  store i64 %27, ptr %28, align 8
  br label %29

29:                                               ; preds = %9, %23, %19, %5
  %.0 = phi i32 [ -1, %5 ], [ -1, %19 ], [ 0, %23 ], [ 0, %9 ]
  ret i32 %.0
}